; Function Attrs: mustprogress nounwind uwtable
define hidden void @_ZN10LinearScan31sort_intervals_after_allocationEv(ptr nocapture noundef nonnull align 8 dereferenceable(256) %0) local_unnamed_addr #0 align 2 {
  %2 = getelementptr inbounds i8, ptr %0, i64 120
  %3 = load i8, ptr %2, align 8
  %4 = trunc i8 %3 to i1
  br i1 %4, label %5, label %14

5:                                                ; preds = %1
  %6 = getelementptr inbounds i8, ptr %0, i64 112
  %7 = load ptr, ptr %6, align 8
  %8 = getelementptr inbounds i8, ptr %7, i64 8
  %9 = load ptr, ptr %8, align 8
  %10 = icmp eq ptr %9, null
  br i1 %10, label %_ZN17GrowableArrayViewIP8IntervalE4sortEPFiPS1_S3_E.exit, label %11

11:                                               ; preds = %5
  %12 = load i32, ptr %7, align 4
  %13 = sext i32 %12 to i64
  tail call void @qsort(ptr noundef nonnull %9, i64 noundef %13, i64 noundef 8, ptr noundef nonnull @_ZN10LinearScan12interval_cmpEPP8IntervalS2_) #22
  br label %_ZN17GrowableArrayViewIP8IntervalE4sortEPFiPS1_S3_E.exit

_ZN17GrowableArrayViewIP8IntervalE4sortEPFiPS1_S3_E.exit: ; preds = %5, %11
  store i8 0, ptr %2, align 8
  br label %14

14:                                               ; preds = %_ZN17GrowableArrayViewIP8IntervalE4sortEPFiPS1_S3_E.exit, %1
  %15 = getelementptr inbounds i8, ptr %0, i64 112
  %16 = load ptr, ptr %15, align 8
  %17 = getelementptr inbounds i8, ptr %0, i64 104
  %18 = load ptr, ptr %17, align 8
  %19 = load i32, ptr %16, align 4
  %20 = icmp eq ptr %18, null
  br i1 %20, label %.thread, label %21

21:                                               ; preds = %14
  %22 = load i32, ptr %18, align 4
  %23 = icmp eq i32 %22, 0
  br i1 %23, label %.thread, label %24

24:                                               ; preds = %21
  %25 = getelementptr inbounds i8, ptr %18, i64 8
  %26 = load ptr, ptr %25, align 8
  %27 = icmp eq ptr %26, null
  br i1 %27, label %_ZN17GrowableArrayViewIP8IntervalE4sortEPFiPS1_S3_E.exit40, label %28

28:                                               ; preds = %24
  %29 = sext i32 %22 to i64
  tail call void @qsort(ptr noundef nonnull %26, i64 noundef %29, i64 noundef 8, ptr noundef nonnull @_ZN10LinearScan12interval_cmpEPP8IntervalS2_) #22
  br label %_ZN17GrowableArrayViewIP8IntervalE4sortEPFiPS1_S3_E.exit40

_ZN17GrowableArrayViewIP8IntervalE4sortEPFiPS1_S3_E.exit40: ; preds = %24, %28
  %30 = add nsw i32 %22, %19
  %31 = tail call noundef ptr @_Z23resource_allocate_bytesmN17AllocFailStrategy13AllocFailEnumE(i64 noundef 24, i32 noundef 0) #22
  %32 = tail call noundef ptr @_ZN30GrowableArrayResourceAllocator8allocateEii(i32 noundef %30, i32 noundef 8) #22
  store i32 %30, ptr %31, align 4
  %33 = getelementptr inbounds i8, ptr %31, i64 4
  store i32 %30, ptr %33, align 4
  %34 = getelementptr inbounds i8, ptr %31, i64 8
  store ptr %32, ptr %34, align 8
  %35 = icmp sgt i32 %30, 0
  br i1 %35, label %.lr.ph, label %_ZN13GrowableArrayIP8IntervalEC2EiiRKS1_.exit

_ZN13GrowableArrayIP8IntervalEC2EiiRKS1_.exit:    ; preds = %_ZN17GrowableArrayViewIP8IntervalE4sortEPFiPS1_S3_E.exit40
  %36 = getelementptr inbounds i8, ptr %31, i64 16
  store i64 0, ptr %36, align 8
  br label %._crit_edge

.lr.ph:                                           ; preds = %_ZN17GrowableArrayViewIP8IntervalE4sortEPFiPS1_S3_E.exit40
  %wide.trip.count.i.i = zext nneg i32 %30 to i64
  %37 = shl nuw nsw i64 %wide.trip.count.i.i, 3
  tail call void @llvm.memset.p0.i64(ptr align 8 %32, i8 0, i64 %37, i1 false)
  %38 = getelementptr inbounds i8, ptr %31, i64 16
  store i64 0, ptr %38, align 8
  %39 = getelementptr inbounds i8, ptr %16, i64 8
  br label %40

40:                                               ; preds = %.lr.ph, %70
  %41 = phi i32 [ 0, %.lr.ph ], [ %71, %70 ]
  %.043 = phi i32 [ 0, %.lr.ph ], [ %.1, %70 ]
  %.03442 = phi i32 [ 0, %.lr.ph ], [ %.135, %70 ]
  %.not = icmp slt i32 %.043, %22
  br i1 %.not, label %42, label %._crit_edge44

._crit_edge44:                                    ; preds = %40
  %.pre = load ptr, ptr %39, align 8
  %.pre45 = sext i32 %.03442 to i64
  %.phi.trans.insert50 = getelementptr inbounds ptr, ptr %.pre, i64 %.pre45
  %.pre51 = load ptr, ptr %.phi.trans.insert50, align 8
  br label %58

42:                                               ; preds = %40
  %43 = icmp slt i32 %.03442, %19
  %.pre46 = load ptr, ptr %25, align 8
  br i1 %43, label %44, label %._crit_edge47

._crit_edge47:                                    ; preds = %42
  %.phi.trans.insert = sext i32 %.043 to i64
  %.phi.trans.insert48 = getelementptr inbounds ptr, ptr %.pre46, i64 %.phi.trans.insert
  %.pre49 = load ptr, ptr %.phi.trans.insert48, align 8
  br label %64

44:                                               ; preds = %42
  %45 = load ptr, ptr %39, align 8
  %46 = sext i32 %.03442 to i64
  %47 = getelementptr inbounds ptr, ptr %45, i64 %46
  %48 = load ptr, ptr %47, align 8
  %49 = getelementptr inbounds i8, ptr %48, i64 8
  %50 = load ptr, ptr %49, align 8
  %51 = load i32, ptr %50, align 8
  %52 = sext i32 %.043 to i64
  %53 = getelementptr inbounds ptr, ptr %.pre46, i64 %52
  %54 = load ptr, ptr %53, align 8
  %55 = getelementptr inbounds i8, ptr %54, i64 8
  %56 = load ptr, ptr %55, align 8
  %57 = load i32, ptr %56, align 8
  %.not39 = icmp sgt i32 %51, %57
  br i1 %.not39, label %64, label %58

58:                                               ; preds = %._crit_edge44, %44
  %59 = phi ptr [ %.pre51, %._crit_edge44 ], [ %48, %44 ]
  %60 = load ptr, ptr %34, align 8
  %61 = sext i32 %41 to i64
  %62 = getelementptr inbounds ptr, ptr %60, i64 %61
  store ptr %59, ptr %62, align 8
  %63 = add nsw i32 %.03442, 1
  br label %70

64:                                               ; preds = %._crit_edge47, %44
  %65 = phi ptr [ %.pre49, %._crit_edge47 ], [ %54, %44 ]
  %66 = load ptr, ptr %34, align 8
  %67 = sext i32 %41 to i64
  %68 = getelementptr inbounds ptr, ptr %66, i64 %67
  store ptr %65, ptr %68, align 8
  %69 = add nsw i32 %.043, 1
  br label %70

70:                                               ; preds = %64, %58
  %.135 = phi i32 [ %63, %58 ], [ %.03442, %64 ]
  %.1 = phi i32 [ %.043, %58 ], [ %69, %64 ]
  %71 = add nsw i32 %.1, %.135
  %72 = icmp slt i32 %71, %30
  br i1 %72, label %40, label %._crit_edge, !llvm.loop !50

._crit_edge:                                      ; preds = %70, %_ZN13GrowableArrayIP8IntervalEC2EiiRKS1_.exit
  store ptr %31, ptr %15, align 8
  br label %.thread

.thread:                                          ; preds = %14, %21, %._crit_edge
  ret void
}